; Function Attrs: nounwind uwtable
define internal ptr @typevartuple_typing_prepare_subst(ptr noundef %0, ptr noundef readonly captures(none) %1, i64 noundef %2) #0 {
  %4 = alloca [3 x ptr], align 16
  %or.cond = icmp eq i64 %2, 2
  br i1 %or.cond, label %7, label %5

5:                                                ; preds = %3
  %6 = tail call i32 @_PyArg_CheckPositional(ptr noundef nonnull @.str.28, i64 noundef %2, i64 noundef 2, i64 noundef 2) #8
  %.not = icmp eq i32 %6, 0
  br i1 %.not, label %14, label %7

7:                                                ; preds = %3, %5
  %8 = load ptr, ptr %1, align 8, !tbaa !16
  %9 = getelementptr i8, ptr %1, i64 8
  %10 = load ptr, ptr %9, align 8, !tbaa !16
  call void @llvm.lifetime.start.p0(i64 24, ptr nonnull %4) #8
  store ptr %0, ptr %4, align 16, !tbaa !16
  %11 = getelementptr inbounds nuw i8, ptr %4, i64 8
  store ptr %8, ptr %11, align 8, !tbaa !16
  %12 = getelementptr inbounds nuw i8, ptr %4, i64 16
  store ptr %10, ptr %12, align 16, !tbaa !16
  %13 = call fastcc ptr @call_typing_func_object(ptr noundef nonnull @.str.94, ptr noundef %4, i64 noundef 3)
  call void @llvm.lifetime.end.p0(i64 24, ptr nonnull %4) #8
  br label %14

14:                                               ; preds = %5, %7
  %.0 = phi ptr [ %13, %7 ], [ null, %5 ]
  ret ptr %.0
}